; Function Attrs: mustprogress uwtable
define dso_local noundef ptr @_ZN28btSortedOverlappingPairCache8findPairEP17btBroadphaseProxyS1_(ptr noundef nonnull align 8 dereferenceable(64) %this, ptr noundef %proxy0, ptr noundef %proxy1) unnamed_addr #0 align 2 {
entry:
  %vtable = load ptr, ptr %this, align 8
  %vfn = getelementptr inbounds i8, ptr %vtable, i64 80
  %0 = load ptr, ptr %vfn, align 8
  %call = tail call noundef zeroext i1 %0(ptr noundef nonnull align 8 dereferenceable(64) %this, ptr noundef %proxy0, ptr noundef %proxy1)
  br i1 %call, label %if.end, label %return

if.end:                                           ; preds = %entry
  %m_uniqueId.i = getelementptr inbounds i8, ptr %proxy0, i64 16
  %1 = load i32, ptr %m_uniqueId.i, align 8
  %m_uniqueId2.i = getelementptr inbounds i8, ptr %proxy1, i64 16
  %2 = load i32, ptr %m_uniqueId2.i, align 8
  %cmp.i = icmp slt i32 %1, %2
  %spec.select.i = select i1 %cmp.i, ptr %proxy0, ptr %proxy1
  %spec.select5.i = select i1 %cmp.i, ptr %proxy1, ptr %proxy0
  %m_size.i.i = getelementptr inbounds i8, ptr %this, i64 12
  %3 = load i32, ptr %m_size.i.i, align 4
  %cmp5.i = icmp sgt i32 %3, 0
  br i1 %cmp5.i, label %for.body.lr.ph.i, label %return

for.body.lr.ph.i:                                 ; preds = %if.end
  %m_data.i = getelementptr inbounds i8, ptr %this, i64 24
  %4 = load ptr, ptr %m_data.i, align 8
  %wide.trip.count.i = zext nneg i32 %3 to i64
  br label %for.body.i

for.body.i:                                       ; preds = %for.inc.i, %for.body.lr.ph.i
  %indvars.iv.i = phi i64 [ 0, %for.body.lr.ph.i ], [ %indvars.iv.next.i, %for.inc.i ]
  %arrayidx.i = getelementptr inbounds %struct.btBroadphasePair, ptr %4, i64 %indvars.iv.i
  %5 = load ptr, ptr %arrayidx.i, align 8
  %cmp.i.i = icmp eq ptr %5, %spec.select.i
  %m_pProxy1.i.i = getelementptr inbounds i8, ptr %arrayidx.i, i64 8
  %6 = load ptr, ptr %m_pProxy1.i.i, align 8
  %cmp3.i.i = icmp eq ptr %6, %spec.select5.i
  %7 = select i1 %cmp.i.i, i1 %cmp3.i.i, i1 false
  br i1 %7, label %_ZNK20btAlignedObjectArrayI16btBroadphasePairE16findLinearSearchERKS0_.exit, label %for.inc.i

for.inc.i:                                        ; preds = %for.body.i
  %indvars.iv.next.i = add nuw nsw i64 %indvars.iv.i, 1
  %exitcond.not.i = icmp eq i64 %indvars.iv.next.i, %wide.trip.count.i
  br i1 %exitcond.not.i, label %return, label %for.body.i, !llvm.loop !25

_ZNK20btAlignedObjectArrayI16btBroadphasePairE16findLinearSearchERKS0_.exit: ; preds = %for.body.i
  %8 = trunc i64 %indvars.iv.i to i32
  %cmp = icmp sgt i32 %3, %8
  br i1 %cmp, label %if.then5, label %return

if.then5:                                         ; preds = %_ZNK20btAlignedObjectArrayI16btBroadphasePairE16findLinearSearchERKS0_.exit
  %sext = shl i64 %indvars.iv.i, 32
  %idxprom.i = ashr exact i64 %sext, 32
  %arrayidx.i5 = getelementptr inbounds %struct.btBroadphasePair, ptr %4, i64 %idxprom.i
  br label %return

return:                                           ; preds = %for.inc.i, %if.end, %_ZNK20btAlignedObjectArrayI16btBroadphasePairE16findLinearSearchERKS0_.exit, %entry, %if.then5
  %retval.0 = phi ptr [ %arrayidx.i5, %if.then5 ], [ null, %entry ], [ null, %_ZNK20btAlignedObjectArrayI16btBroadphasePairE16findLinearSearchERKS0_.exit ], [ null, %if.end ], [ null, %for.inc.i ]
  ret ptr %retval.0
}